target datalayout = "e-m:e-p270:32:32-p271:32:32-p272:64:64-i64:64-i128:128-f80:128-n8:16:32:64-S128"
target triple = "x86_64-pc-linux-gnu"

%struct.chr_data = type { i64, i8 }

; Function Attrs: nounwind uwtable
define i64 @CORD_rchr(ptr noundef %0, i64 noundef %1, i32 noundef %2) #0 {
  %4 = alloca i64, align 8
  %5 = alloca ptr, align 8
  %6 = alloca i64, align 8
  %7 = alloca i32, align 4
  %8 = alloca %struct.chr_data, align 8
  %9 = alloca i32, align 4
  store ptr %0, ptr %5, align 8, !tbaa !3
  store i64 %1, ptr %6, align 8, !tbaa !11
  store i32 %2, ptr %7, align 4, !tbaa !13
  call void @llvm.lifetime.start.p0(i64 16, ptr %8) #9
  %10 = load i64, ptr %6, align 8, !tbaa !11
  %11 = getelementptr inbounds nuw %struct.chr_data, ptr %8, i32 0, i32 0
  store i64 %10, ptr %11, align 8, !tbaa !29
  %12 = load i32, ptr %7, align 4, !tbaa !13
  %13 = trunc i32 %12 to i8
  %14 = getelementptr inbounds nuw %struct.chr_data, ptr %8, i32 0, i32 1
  store i8 %13, ptr %14, align 8, !tbaa !31
  %15 = load ptr, ptr %5, align 8, !tbaa !3
  %16 = load i64, ptr %6, align 8, !tbaa !11
  %17 = call i32 @CORD_riter4(ptr noundef %15, i64 noundef %16, ptr noundef @CORD_rchr_proc, ptr noundef %8)
  %18 = icmp ne i32 %17, 0
  br i1 %18, label %19, label %22

19:                                               ; preds = %3
  %20 = getelementptr inbounds nuw %struct.chr_data, ptr %8, i32 0, i32 0
  %21 = load i64, ptr %20, align 8, !tbaa !29
  store i64 %21, ptr %4, align 8
  store i32 1, ptr %9, align 4
  br label %23

22:                                               ; preds = %3
  store i64 -1, ptr %4, align 8
  store i32 1, ptr %9, align 4
  br label %23

23:                                               ; preds = %22, %19
  call void @llvm.lifetime.end.p0(i64 16, ptr %8) #9
  %24 = load i64, ptr %4, align 8
  ret i64 %24
}