; Function Attrs: nounwind uwtable
define i64 @CORD_rchr(ptr noundef %0, i64 noundef %1, i32 noundef %2) local_unnamed_addr #0 {
  %4 = alloca %struct.chr_data, align 8
  call void @llvm.lifetime.start.p0(i64 16, ptr nonnull %4) #16
  store i64 %1, ptr %4, align 8, !tbaa !26
  %5 = trunc i32 %2 to i8
  %6 = getelementptr inbounds nuw i8, ptr %4, i64 8
  store i8 %5, ptr %6, align 8, !tbaa !28
  %7 = call i32 @CORD_riter4(ptr noundef %0, i64 noundef %1, ptr noundef nonnull @CORD_rchr_proc, ptr noundef nonnull %4) #16
  %.not = icmp eq i32 %7, 0
  %8 = load i64, ptr %4, align 8
  %.0 = select i1 %.not, i64 -1, i64 %8
  call void @llvm.lifetime.end.p0(i64 16, ptr nonnull %4) #16
  ret i64 %.0
}